target datalayout = "e-m:e-p270:32:32-p271:32:32-p272:64:64-i64:64-i128:128-f80:128-n8:16:32:64-S128"
target triple = "x86_64-pc-linux-gnu"

%struct._someip_parameter_union_uat = type { i32, ptr, i32, i32, i32, i32, i32, ptr, i32, i32, ptr }

; Function Attrs: null_pointer_is_valid sspstrong uwtable
define internal ptr @copy_someip_parameter_union_cb(ptr noundef %0, ptr noundef %1, i64 noundef %2) #0 {
  %4 = alloca ptr, align 8
  %5 = alloca ptr, align 8
  %6 = alloca i64, align 8
  %7 = alloca ptr, align 8
  %8 = alloca ptr, align 8
  store ptr %0, ptr %4, align 8
  store ptr %1, ptr %5, align 8
  store i64 %2, ptr %6, align 8
  call void @llvm.lifetime.start.p0(i64 8, ptr %7) #19
  %9 = load ptr, ptr %4, align 8
  store ptr %9, ptr %7, align 8
  call void @llvm.lifetime.start.p0(i64 8, ptr %8) #19
  %10 = load ptr, ptr %5, align 8
  store ptr %10, ptr %8, align 8
  %11 = load ptr, ptr %8, align 8
  %12 = getelementptr inbounds nuw %struct._someip_parameter_union_uat, ptr %11, i32 0, i32 0
  %13 = load i32, ptr %12, align 8
  %14 = load ptr, ptr %7, align 8
  %15 = getelementptr inbounds nuw %struct._someip_parameter_union_uat, ptr %14, i32 0, i32 0
  store i32 %13, ptr %15, align 8
  %16 = load ptr, ptr %8, align 8
  %17 = getelementptr inbounds nuw %struct._someip_parameter_union_uat, ptr %16, i32 0, i32 1
  %18 = load ptr, ptr %17, align 8
  %19 = icmp ne ptr %18, null
  br i1 %19, label %20, label %27

20:                                               ; preds = %3
  %21 = load ptr, ptr %8, align 8
  %22 = getelementptr inbounds nuw %struct._someip_parameter_union_uat, ptr %21, i32 0, i32 1
  %23 = load ptr, ptr %22, align 8
  %24 = call noalias ptr @g_strdup(ptr noundef %23)
  %25 = load ptr, ptr %7, align 8
  %26 = getelementptr inbounds nuw %struct._someip_parameter_union_uat, ptr %25, i32 0, i32 1
  store ptr %24, ptr %26, align 8
  br label %30

27:                                               ; preds = %3
  %28 = load ptr, ptr %7, align 8
  %29 = getelementptr inbounds nuw %struct._someip_parameter_union_uat, ptr %28, i32 0, i32 1
  store ptr null, ptr %29, align 8
  br label %30

30:                                               ; preds = %27, %20
  %31 = load ptr, ptr %8, align 8
  %32 = getelementptr inbounds nuw %struct._someip_parameter_union_uat, ptr %31, i32 0, i32 2
  %33 = load i32, ptr %32, align 8
  %34 = load ptr, ptr %7, align 8
  %35 = getelementptr inbounds nuw %struct._someip_parameter_union_uat, ptr %34, i32 0, i32 2
  store i32 %33, ptr %35, align 8
  %36 = load ptr, ptr %8, align 8
  %37 = getelementptr inbounds nuw %struct._someip_parameter_union_uat, ptr %36, i32 0, i32 3
  %38 = load i32, ptr %37, align 4
  %39 = load ptr, ptr %7, align 8
  %40 = getelementptr inbounds nuw %struct._someip_parameter_union_uat, ptr %39, i32 0, i32 3
  store i32 %38, ptr %40, align 4
  %41 = load ptr, ptr %8, align 8
  %42 = getelementptr inbounds nuw %struct._someip_parameter_union_uat, ptr %41, i32 0, i32 4
  %43 = load i32, ptr %42, align 8
  %44 = load ptr, ptr %7, align 8
  %45 = getelementptr inbounds nuw %struct._someip_parameter_union_uat, ptr %44, i32 0, i32 4
  store i32 %43, ptr %45, align 8
  %46 = load ptr, ptr %8, align 8
  %47 = getelementptr inbounds nuw %struct._someip_parameter_union_uat, ptr %46, i32 0, i32 5
  %48 = load i32, ptr %47, align 4
  %49 = load ptr, ptr %7, align 8
  %50 = getelementptr inbounds nuw %struct._someip_parameter_union_uat, ptr %49, i32 0, i32 5
  store i32 %48, ptr %50, align 4
  %51 = load ptr, ptr %8, align 8
  %52 = getelementptr inbounds nuw %struct._someip_parameter_union_uat, ptr %51, i32 0, i32 6
  %53 = load i32, ptr %52, align 8
  %54 = load ptr, ptr %7, align 8
  %55 = getelementptr inbounds nuw %struct._someip_parameter_union_uat, ptr %54, i32 0, i32 6
  store i32 %53, ptr %55, align 8
  %56 = load ptr, ptr %8, align 8
  %57 = getelementptr inbounds nuw %struct._someip_parameter_union_uat, ptr %56, i32 0, i32 7
  %58 = load ptr, ptr %57, align 8
  %59 = icmp ne ptr %58, null
  br i1 %59, label %60, label %67

60:                                               ; preds = %30
  %61 = load ptr, ptr %8, align 8
  %62 = getelementptr inbounds nuw %struct._someip_parameter_union_uat, ptr %61, i32 0, i32 7
  %63 = load ptr, ptr %62, align 8
  %64 = call noalias ptr @g_strdup(ptr noundef %63)
  %65 = load ptr, ptr %7, align 8
  %66 = getelementptr inbounds nuw %struct._someip_parameter_union_uat, ptr %65, i32 0, i32 7
  store ptr %64, ptr %66, align 8
  br label %70

67:                                               ; preds = %30
  %68 = load ptr, ptr %7, align 8
  %69 = getelementptr inbounds nuw %struct._someip_parameter_union_uat, ptr %68, i32 0, i32 7
  store ptr null, ptr %69, align 8
  br label %70

70:                                               ; preds = %67, %60
  %71 = load ptr, ptr %8, align 8
  %72 = getelementptr inbounds nuw %struct._someip_parameter_union_uat, ptr %71, i32 0, i32 8
  %73 = load i32, ptr %72, align 8
  %74 = load ptr, ptr %7, align 8
  %75 = getelementptr inbounds nuw %struct._someip_parameter_union_uat, ptr %74, i32 0, i32 8
  store i32 %73, ptr %75, align 8
  %76 = load ptr, ptr %8, align 8
  %77 = getelementptr inbounds nuw %struct._someip_parameter_union_uat, ptr %76, i32 0, i32 9
  %78 = load i32, ptr %77, align 4
  %79 = load ptr, ptr %7, align 8
  %80 = getelementptr inbounds nuw %struct._someip_parameter_union_uat, ptr %79, i32 0, i32 9
  store i32 %78, ptr %80, align 4
  %81 = load ptr, ptr %8, align 8
  %82 = getelementptr inbounds nuw %struct._someip_parameter_union_uat, ptr %81, i32 0, i32 10
  %83 = load ptr, ptr %82, align 8
  %84 = icmp ne ptr %83, null
  br i1 %84, label %85, label %92

85:                                               ; preds = %70
  %86 = load ptr, ptr %8, align 8
  %87 = getelementptr inbounds nuw %struct._someip_parameter_union_uat, ptr %86, i32 0, i32 10
  %88 = load ptr, ptr %87, align 8
  %89 = call noalias ptr @g_strdup(ptr noundef %88)
  %90 = load ptr, ptr %7, align 8
  %91 = getelementptr inbounds nuw %struct._someip_parameter_union_uat, ptr %90, i32 0, i32 10
  store ptr %89, ptr %91, align 8
  br label %95

92:                                               ; preds = %70
  %93 = load ptr, ptr %7, align 8
  %94 = getelementptr inbounds nuw %struct._someip_parameter_union_uat, ptr %93, i32 0, i32 10
  store ptr null, ptr %94, align 8
  br label %95

95:                                               ; preds = %92, %85
  %96 = load ptr, ptr %7, align 8
  call void @llvm.lifetime.end.p0(i64 8, ptr %8) #19
  call void @llvm.lifetime.end.p0(i64 8, ptr %7) #19
  ret ptr %96
}